; Function Attrs: mustprogress uwtable
define void @_ZN3zmq21routing_socket_base_t14erase_out_pipeEPKNS_6pipe_tE(ptr noundef nonnull align 8 dereferenceable(1912) %0, ptr noundef nonnull %1) local_unnamed_addr #0 align 2 {
  %3 = getelementptr inbounds nuw i8, ptr %0, i64 1832
  %4 = tail call noundef nonnull align 8 dereferenceable(17) ptr @_ZNK3zmq6pipe_t14get_routing_idEv(ptr noundef nonnull align 8 dereferenceable(328) %1)
  %5 = tail call { ptr, ptr } @_ZNSt8_Rb_treeIN3zmq6blob_tESt4pairIKS1_NS0_21routing_socket_base_t10out_pipe_tEESt10_Select1stIS6_ESt4lessIS1_ESaIS6_EE11equal_rangeERS3_(ptr noundef nonnull align 8 dereferenceable(48) %3, ptr noundef nonnull align 8 dereferenceable(17) %4)
  %6 = extractvalue { ptr, ptr } %5, 0
  %7 = extractvalue { ptr, ptr } %5, 1
  %8 = getelementptr inbounds nuw i8, ptr %0, i64 1872
  %9 = load i64, ptr %8, align 8, !tbaa !28
  tail call void @_ZNSt8_Rb_treeIN3zmq6blob_tESt4pairIKS1_NS0_21routing_socket_base_t10out_pipe_tEESt10_Select1stIS6_ESt4lessIS1_ESaIS6_EE12_M_erase_auxESt23_Rb_tree_const_iteratorIS6_ESE_(ptr noundef nonnull align 8 dereferenceable(48) %3, ptr %6, ptr %7)
  %10 = load i64, ptr %8, align 8, !tbaa !28
  %.not = icmp eq i64 %9, %10
  br i1 %.not, label %11, label %16, !prof !125

11:                                               ; preds = %2
  %12 = load ptr, ptr @stderr, align 8, !tbaa !100
  %13 = tail call i32 (ptr, ptr, ...) @fprintf(ptr noundef %12, ptr noundef nonnull @.str.3, ptr noundef nonnull @.str.22, ptr noundef nonnull @.str.1, i32 noundef 2141) #42
  %14 = load ptr, ptr @stderr, align 8, !tbaa !100
  %15 = tail call i32 @fflush(ptr noundef %14)
  tail call void @_ZN3zmq9zmq_abortEPKc(ptr noundef nonnull @.str.22)
  br label %16

16:                                               ; preds = %11, %2
  ret void
}